(lp0
S'poi'
p1
aS'poi_to_total_proportion'
p2
aS'total_stock_value'
p3
aS'bonus'
p4
aS'deferred_income'
p5
aS'restricted_stock'
p6
aS'total_payments'
p7
aS'expenses'
p8
aS'from_poi_to_this_person'
p9
a.